(lp0
S'faith christ god christianity belief truth christian bible jesus sin'
p1
aS'write david give delete regard perhaps dan us exactly call'
p2
aS'game baseball team player fan hitter playoff back guy chicago'
p3
aS'turks israeli israel armenia village country armenian turkish government arab'
p4
aS'hear pay minute total month dealer pull really money turn'
p5
aS'line help error character file copy work appreciate greatly need'
p6
aS'know thing one get think time good make article like'
p7
aS'orbit bike light science gordon hole detector radar mile objective'
p8
aS'encryption algorithm escrow secure motif technology generate library widget export'
p9
aS'card windows thanks motherboard ram mac upgrade monitor mb video'
p10
a.