(lp0
S'article write sorry reason guess oh though sort much michael'
p1
aS'play game team player score playoff toronto rangers pittsburgh win'
p2
aS'armenians armenia turks village armenian israel troops massacre kill territory'
p3
aS'windows unix server software display graphic window ftp version screen'
p4
aS'vote budget regulation majority clearly consider civil effort violent state'
p5
aS'anyone like anybody try advance appreciate someone put else sure'
p6
aS'god believe bible faith christian thing christ christianity belief truth'
p7
aS'gordon compound medical surrender treatment science disease scientist pain patient'
p8
aS'clipper enforcement escrow key wiretap encrypt encryption nsa crypto federal'
p9
aS'price motherboard scsi ide speed bike simm scsus sale cable'
p10
a.