(lp0
S'israeli arab arabs israel territory lebanon war lebanese palestinian village'
p1
aS'brand amp battery voltage electronics ac interested buy msg supply'
p2
aS'win score game baseball playoff play leafs season wings fan'
p3
aS'april georgia research national flight satellite medical office education organization'
p4
aS'god bible christian christianity faith sin belief christ existence church'
p5
aS'windows display interface card server pc unix software meg screen'
p6
aS'encryption key encrypt clipper secure escrow enforcement chip wiretap crypto'
p7
aS'write article know think go like time hey want take'
p8
aS'bike armenia ride tear helmet front let back armenians armenian'
p9
aS'seem someone thing never well really wonder pain good else'
p10
a.