(lp0
S'christian god bible faith christianity christ religion reject sin truth'
p1
aS'write article anyone good lot gordon wonder pretty try find'
p2
aS'card software unix digital mode documentation pc interface ftp ide'
p3
aS'york washington team april pittsburgh san angeles calgary chicago rangers'
p4
aS'bike honda helmet pull ride front sit door car go'
p5
a.