(lp0
S'report less clinton week wrong medicine society issue april activity'
p1
aS'radio supply hd engine mike ny vs battery texas tv'
p2
aS'christian god bible faith jesus christ christianity truth belief religion'
p3
aS'least sorry anyway guy level figure remember suspect btw listen'
p4
aS'without never however course please hand put university start become'
p5
aS'clipper chip encryption protect criminal objective court assume phone morality'
p6
aS'team score season playoff win fan leafs cup baseball pittsburgh'
p7
aS'gun earth probably old care moon possible spacecraft natural mission'
p8
aS'car back happen another might idea sure anything man else'
p9
aS'appreciate help hus advance anyone sound keep read copy power'
p10
aS'software email mail monitor address list via library support upgrade'
p11
aS'enough always condition order sale rather whole full whatever stop'
p12
aS'say question way come want point give day president many'
p13
aS'every either hope price three office within example drug individual'
p14
aS'little pay bike interested switch michael couple tax wait extra'
p15
aS'use article know drive quadra work apple call post need'
p16
aS'armenians armenia armenian turks israeli israel kill turkish village arab'
p17
aS'try look find much really lot problem better tell thanks'
p18
aS'player game play hit buy best great mark trade watch'
p19
aS'mine ride guess oh wonder friend mile low fire pull'
p20
aS'think go see thing good well like make time one'
p21
aS'key information file algorithm system encrypt agency enforcement security function'
p22
aS'someone opinion still claim bad ever hear david big mention'
p23
aS'windows window card pc display disk server memory version mac'
p24
aS'cause cost effect real food area development air flight center'
p25
a.