(lp0
S'let back read key course different feel trust method already'
p1
aS'perhaps watch pull forget stupid stay obviously past hour outside'
p2
aS'reason least buy true order source copy several full letter'
p3
aS'space run flight nasa orbit project shuttle budget pressure mission'
p4
aS'government state israel israeli arab rights citizen arabs land federal'
p5
aS'find look way question post number point sleep forward myers'
p6
aS'like new well bit disk exception connect shop wall heat'
p7
aS'play player win score playoff toronto mike cup hit red'
p8
aS'still car never help every real big price person mile'
p9
aS'fact turks armenian armenia hear muslim jewish today murder escape'
p10
aS'program use software version system image server set datum text'
p11
aS'turn side friend hand else death break stand difference obvious'
p12
aS'interested test check board current large performance info low upgrade'
p13
aS'advance similar draw delete fail thank wish cut suggestion front'
p14
aS'get file may send require section equipment judge rule prior'
p15
aS'even believe rather must case consider explain choose raise sense'
p16
aS'time see much something someone happen culture carry contribute toward'
p17
aS'think problem come give drive survive ready anymore track manage'
p18
aS'last man lot woman armenians three night home city whole'
p19
aS'seem opinion become card human deal possible drug jews war'
p20
aS'wrong ever mention mine ago reply although suppose correct response'
p21
aS'kind michael reduce particular jim tax measure describe actual recently'
p22
aS'encryption clipper escrow security agency legal enforcement algorithm national technology'
p23
aS'say people one go write article make db mouse animal'
p24
aS'windows apple memory mac code display graphic ram interface mb'
p25
aS'please ask mean better driver sound mouse cause level guess'
p26
aS'phone result study process receive date sun select student install'
p27
aS'user ftp provide public message site mail via general request'
p28
aS'monitor bike speed port sale fast manual internal motherboard switch'
p29
aS'really put enough next answer old bad actually month tv'
p30
aS'fax wonder nice sorry ide pick scsi scott bus tom'
p31
aS'information available window list application support screen call address printer'
p32
aS'create agree science term statement objective morality food animal apply'
p33
aS'show probably however base religion leave mark face practice maintain'
p34
aS'know good also year want anymore enjoy nobody ready hardly'
p35
aS'two gun child pay live weapon clinton crime criminal right'
p36
aS'research company rate robert oh within concern admit jack short'
p37
aS'law without faith act clear strong history involve existence seek'
p38
aS'god christian bible jesus christ christianity belief life sin definition'
p39
aS'team power second chicago goal pittsburgh boston leafs montreal detroit'
p40
aS'thanks university might group chip sure able task notice yet'
p41
aS'kill anything country book whether evidence fire clearly situation great'
p42
aS'thing take work try tell truck across rock worry totally'
p43
aS'world nothing claim church though keep end idea love matter'
p44
aS'quite week experience move understand money expect reference responsible early'
p45
aS'game fan best baseball season pitch lead talk average center'
p46
aS'need anyone machine name design build type app microsoft add'
p47
aS'sell david cost maybe lose ride offer couple item ed'
p48
aS'around appreciate follow anybody fine pretty original light steve video'
p49
aS'first day many long since note important learn cover meeting'
p50
a.