(lp0
S'know question day back christian world john mistake means mass'
p1
aS'make work new look two though send create light exception'
p2
aS'say even start break armenians stay plan building burn fall'
p3
aS'appreciate please windows hus software sale memory apple motherboard systems'
p4
aS'need car really try around window turn guy front ford'
p5
aS'baseball probably keith pitch jack watch roger scott disclaimer mark'
p6
aS'set free encryption company clipper criminal protect legal escrow nsa'
p7
aS'go something last version form research various site image week'
p8
aS'people god believe claim bible truth life evidence christianity reject'
p9
aS'toronto chicago rangers win pittsburgh playoff boston san montreal leafs'
p10
aS'high speed michael old low red tom jeff ron drop'
p11
aS'bike driver university email ride engineering shipping mac internet fun'
p12
aS'thanks advance drive sell computer monitor anybody plus suggestion add'
p13
aS'game play team player season steve coach lose jim oh'
p14
aS'well group include mean consider general press president city department'
p15
aS'without ask show long enough opinion better book simply remember'
p16
aS'anyone fax screen pc box meg mike bus recently compatible'
p17
aS'force office level school difficult station sign community beyond development'
p18
aS'use system information may number datum require law detail database'
p19
aS'write like time also much build fun greg arabs ignorance'
p20
aS'run chip phone install access printer serial modem fast processor'
p21
aS'thing true far order allow david feel individual love sure'
p22
aS'crime land commit likely learn fbi event fail serious defend'
p23
aS'hit record short third dead total defense intend score finally'
p24
aS'person matter israel rights hold certainly attack refer church whole'
p25
aS'several obtain release security produce algorithm receive list possible addition'
p26
aS'state child human report become national body woman armenian subject'
p27
aS'happen cause whether rather answer wrong understand mind little code'
p28
aS'fact might side population whose soul escape peace armenia face'
p29
aS'issue public user text involve particular application specific common document'
p30
aS'least second source view carry us perhaps already serve cost'
p31
aS'one think first year right support fun greg ignorance arabs'
p32
aS'buy price nice chris dave plug color ram usa bug'
p33
aS'get come call lot great speak server comment imagine effort'
p34
aS'card video upgrade scsi spec ide setup boot faster hd'
p35
aS'follow post change current function design check result command size'
p36
aS'man statement accept today jesus upon bring purpose belief clear'
p37
aS'point provide keep available house control citizen science policy weapon'
p38
aS'live let country word action member every american death pass'
p39
aS'big ever seem pay dealer engine pull stupid air guess'
p40
aS'part another read different faith christ explain often later kind'
p41
aS'note contain space base type simple leave handle value mail'
p42
aS'tell anything example name yet always less away exist exactly'
p43
aS'manual port mode board graphic brand quadra greatly simm mouse'
p44
aS'fan interested someone hello gordon anyway soon yeah sport condition'
p45
aS'file program line copy directory author address error request message'
p46
aS'reason idea real effect stop care study method mention interesting'
p47
aS'take problem never put power hand agree gun jewish maybe'
p48
aS'give way good since government case key must course suggest'
p49
aS'article see want find many kill fun greg ignorance arabs'
p50
a.