(lp0
S'clipper encryption escrow secure key nsa encrypt security scheme enforcement'
p1
aS'science keep kind least reason turn perhaps mind lack opinion'
p2
aS'issue charge morality freedom police bill firearm rights liberty whatever'
p3
aS'line int null input character entry error hint title send'
p4
aS'want try anyone know look much well think right way'
p5
aS'arab israel israeli lebanon arabs lebanese pay msg state leave'
p6
aS'cost thank appreciate level tel recent soon center amount local'
p7
aS'time see one like seem good idea anything point thing'
p8
aS'game team play player baseball fan score playoff season stanley'
p9
aS'bike honda orbit ride vehicle engine radio spacecraft bmw helmet'
p10
aS'window file server windows version display software program unix ftp'
p11
aS'armenians armenia armenian turks massacre turkish kill village genocide population'
p12
aS'god christian faith bible christ jesus christianity church belief scripture'
p13
aS'article someone write little jim delete bother yes oh book'
p14
aS'motherboard meg ide scsi mb card scsus quadra hd memory'
p15
a.