(lp0
S'clinton compound drug gordon medicine surrender effect federal fbi safety'
p1
aS'game play win chicago score toronto pittsburgh montreal playoff team'
p2
aS'turks soul armenia armenian armenians village proceed turkish border genocide'
p3
aS'software windows ftp unix card interface pc directory version mode'
p4
aS'write like really article someone else actually curious think much'
p5
a.