(lp0
S'around help sell every quite interested soon gordon man ago'
p1
aS'price bike card high company video research pay science area'
p2
aS'security clipper secure escrow rights algorithm nsa enforcement prevent proposal'
p3
aS'program information available file window version user via include server'
p4
aS'armenia turks armenian armenians escape turkish population kill crime massacre'
p5
aS'score chicago fan toronto baseball rangers boston detroit pittsburgh montreal'
p6
aS'god bible christian say thing people see jesus come belief'
p7
aS'back let never start point anything little really might leave'
p8
aS'general application addition develop type specify reference additional april appropriate'
p9
aS'game team player play last lot coach tie need find'
p10
aS'software graphic display unix pc color ftp image hardware macintosh'
p11
aS'appreciate us box greatly local institute engineering organization windows hus'
p12
aS'give show put else nothing end book either assume suppose'
p13
aS'think post right much keep two year case key change'
p14
aS'better hear still bad big hit idea long mike cause'
p15
aS'name address obtain build read receive several author contain follow'
p16
aS'anyone seem someone tell ask believe actually talk write reply'
p17
aS'one know make look go well question must use system'
p18
aS'pretty msg anyway hour station watch food eat effect front'
p19
aS'israel reason life want peace evidence something day arab happen'
p20
aS'different church mark three christ lose especially news result peter'
p21
aS'yet love faith cost fall happy morality thought expect christianity'
p22
aS'law state human moral israeli true president accept act authority'
p23
aS'memory bus motherboard scsi ide mb meg internal ram scsus'
p24
aS'car since least old far difference mile speed mention small'
p25
a.