(lp0
S'say go people one know see come take tell time'
p1
aS'god one believe think christian jesus make claim may true'
p2
aS'use file system program drive run work thanks include also'
p3
aS'year game new government key team two make law last'
p4
aS'write article get like think anyone much one good car'
p5
a.