(lp0
S'hear happen someone bike opinion never cause anything fail maybe'
p1
aS'game play team player still another since seem score long'
p2
aS'know like think good thing get want article write go'
p3
aS'drive run program thanks please need set help datum card'
p4
aS'god law jesus life must christian reason true part claim'
p5
a.