(lp0
S'game toronto pittsburgh win team period score playoff wings rangers'
p1
aS'screen directory display user ftp graphic software datum file server'
p2
aS'anyone bike like get far article write dealer driver sure'
p3
aS'fact reason believe think god mean talk mind say insist'
p4
aS'israeli rights israel arab armenian concern village justice lebanon massacre'
p5
a.