(lp0
S'idea actually end less evidence power area week figure example'
p1
aS'bike old watch sorry israeli ride advance night chance dog'
p2
aS'seem try believe something question way mean look drive claim'
p3
aS'card monitor best box able probably hard copy original local'
p4
aS'game player team play baseball fan god score season coach'
p5
aS'hear side world guess reason wonder mine kid price mention'
p6
aS'university david software mike dave usa draw board font frank'
p7
aS'even good much never tell still state keep constitution take'
p8
aS'issue answer true act cause possible change general course science'
p9
aS'orbit design us space nasa research development flight national project'
p10
aS'really let around little anyone another enough anything lot start'
p11
aS'christian jesus christ christianity sin love accept scripture doctrine eternal'
p12
aS'back sure long least call read part opinion though fact'
p13
aS'mail computer email ftp user message via address site access'
p14
aS'think write know article go like get say see rom'
p15
aS'armenia armenians turks armenian country car turkish weapon force president'
p16
aS'program line info function version input size format server sun'
p17
aS'window set system windows include available thanks code application datum'
p18
aS'win toronto chicago pittsburgh boston rangers montreal detroit philadelphia disk'
p19
aS'interested manual motherboard upgrade install mb hello pin michael graphic'
p20
aS'human moral matter religion statement morality action mind existence person'
p21
aS'memory speed driver machine ram video fast screen display faster'
p22
aS'nothing turn everyone else leave woman bring forget wife friend'
p23
aS'key clipper escrow encryption enforcement secure public agency security nsa'
p24
aS'cost anybody wrong appreciate steve black hold cop mark oh'
p25
a.