(lp0
S'anyone ide interested connector motherboard meg bike sale modem pin'
p1
aS'program window software available user display directory application use run'
p2
aS'people god believe happen nothing truth say think fact agree'
p3
aS'government citizen criminal court federal member crime state law rights'
p4
aS'team player score rangers play game win ny fan toronto'
p5
a.