(lp0
S'live life murder muslim soldier exist moral armenian massacre war'
p1
aS'population armenia around sell serve figure street yes happen town'
p2
aS'software windows application server pc set memory computer graphic screen'
p3
aS'take want way even day ask may start group name'
p4
aS'orbit engine low model test fuel less moon high earth'
p5
aS'program window file use display run version directory postscript format'
p6
aS'space office project united states large organization bill charge month'
p7
aS'price motherboard meg ram port scsi apple simm manual speed'
p8
aS'say see people go come tell make article something jump'
p9
aS'key encryption clipper escrow government secure law chip enforcement security'
p10
aS'christian bible faith christ jesus christianity church believe belief religion'
p11
aS'game team player season play score playoff rangers fan leafs'
p12
aS'bike difference cause level oh disclaimer friend likely advice notice'
p13
aS'little else ever bad kind agree write week food guy'
p14
aS'question many call help another issue general provide without suggest'
p15
aS'ftp mail board box disk systems site unix technical code'
p16
aS'thanks card buy interested video printer modem print address david'
p17
aS'morality create define nothing course character objective build process mouse'
p18
aS'one time well anyone still please number state sleep sort'
p19
aS'let cover experience learn light doctor israeli weapon realize ride'
p20
aS'israel kill jewish keep turks gun armenians never away fire'
p21
aS'hear really opinion might anything sound quite back post old'
p22
aS'like better look try give sure need much point hitter'
p23
aS'truth matter answer book actually assume consider pay scripture always'
p24
aS'hand feel yet mention today later situation certain house break'
p25
a.