(lp0
S'thanks know buy really hus ride dog university wave big'
p1
aS'evidence religion country jewish prove argue existence religious witness muslim'
p2
aS'use fax color screen uucp systems display current application digital'
p3
aS'advance hello condition call news research ma model board soon'
p4
aS'wonder black david jeff gmt surrender ed apr bob maybe'
p5
aS'bike honda lot rear mile gear bmw front nice fun'
p6
aS'god say bible faith jesus church word mean heaven scripture'
p7
aS'video performance faster box supply local rate high drive isa'
p8
aS'israel kill armenians population crime murder arab armenia village gun'
p9
aS'card price phone run upgrade mode ram port setup company'
p10
aS'fact life world statement history morality objective action eternal teach'
p11
aS'anybody probably appreciate cost find guess greatly back quite sorry'
p12
aS'people think government claim right situation certainly bring freedom today'
p13
aS'information code contain system available include directory datum server release'
p14
aS'like hear still oh opinion anything stupid remember day guy'
p15
aS'game team play score hockey player playoff season fan baseball'
p16
aS'look old small pay mine fast memory battery able printer'
p17
aS'problem need monitor apple software internal sell mouse plug microsoft'
p18
aS'part work many general space press order want plan various'
p19
aS'much better steve speed little turn fuel engine yeah gas'
p20
aS'write article time show enough reason believe ever take earth'
p21
aS'computer mail machine driver modem via install email anyone disk'
p22
aS'law christian human act authority moral member citizen christ court'
p23
aS'please car interested help us offer ford kevin texas pat'
p24
aS'key escrow encryption clipper algorithm chip secure scheme function encrypt'
p25
a.