(lp0
S'use system program file also run window available work include'
p1
aS'write article get like know one anyone problem much work'
p2
aS'say people one god think make believe know see come'
p3
aS'use key government law file number gun one post may'
p4
aS'year go game new last get team first play time'
p5
a.