(lp0
S'god christian bible faith israel christianity jesus christ religion church'
p1
aS'nasa orbit mission flight shuttle spacecraft activity space congress political'
p2
aS'windows card version window display interface pc software color ram'
p3
aS'thing see tell go think way well one talk right'
p4
aS'insurance gordon hello sale design audio expensive hus michael dealer'
p5
aS'team game fan player roger shot tie playoff penalty hockey'
p6
aS'anyone appreciate thanks write get anybody interested please article greatly'
p7
aS'key algorithm encrypt secure encryption security clipper nsa cryptography escrow'
p8
aS'jose chicago toronto detroit pittsburgh pitch angeles period louis mike'
p9
aS'armenians armenia armenian car turks fire turkish tear compound burn'
p10
a.