(lp0
S'buy battery brand cheaper honda ac simm mg cheap tube'
p1
aS'federal army armenia village territory turks compound troops crime israeli'
p2
aS'game team play pittsburgh score playoff minnesota season player rangers'
p3
aS'program window server unix display windows format library interface software'
p4
aS'bible god christian christianity faith belief christ sin jesus doctrine'
p5
a.