(lp0
S'key clipper encryption chip escrow phone system technology algorithm secure'
p1
aS'article write know like one make go time people marriage'
p2
aS'fact friend remember hope mine david quite pay guess care'
p3
aS'come want see tell armenia armenians back turks armenian escape'
p4
aS'god christian bible faith christ jesus church sin truth scripture'
p5
aS'might person without perhaps become course jewish evidence sort quote'
p6
aS'think thing question many since really though call book let'
p7
aS'take way even well something say still day another probably'
p8
aS'game play playoff score season win rangers fan leafs wings'
p9
aS'agree rather yet love study moral die explain certain less'
p10
aS'state arm weapon crime police attack side village officer man'
p11
aS'available mail send list ftp include copy datum message user'
p12
aS'baseball hit player watch lot night defensive lose keep oh'
p13
aS'application server screen unix mode interface fax mac display memory'
p14
aS'program software drive disk pc scsi version ide color file'
p15
aS'hear sure order already high hold possible within bad issue'
p16
aS'sound experience low compare robert difference sorry ed battery reference'
p17
aS'price level money amount jim disclaimer simple turn tom easy'
p18
aS'find work try good post may point part space power'
p19
aS'get use give able properly ask someone right start cheap'
p20
aS'country clinton help idea better business interest private today drug'
p21
aS'group michael consider big report place show us light stop'
p22
aS'thanks card bike motherboard hus driver meg buy car simm'
p23
aS'science steve ago actually ever mark cover old couple treatment'
p24
aS'israel israeli rights human believe government freedom civil reason force'
p25
a.