(lp0
S'really like lot hear enough still little oh day anyway'
p1
aS'windows software ftp pc unix directory display interface card port'
p2
aS'compound morality gordon surrender whether moral fact statement jon waco'
p3
aS'seem way course never put place idea else cover want'
p4
aS'federal protect prohibit legal enforcement illegal amendment firearm science agency'
p5
aS'turks armenia village israeli armenian arab israel turkish armenians soviet'
p6
aS'god believe faith tell christ christian bible sin jesus heaven'
p7
aS'game play team pittsburgh playoff player score fan rangers montreal'
p8
aS'bike car honda engine gear buy ford ride wheel bmw'
p9
aS'write time one article see make well try think good'
p10
a.