(lp0
S'israel israeli place seem lebanon keep lebanese state question country'
p1
aS'call without give real probably group hear pay big consider'
p2
aS'see one thing want think say time like know well'
p3
aS'base different david large cost lot lewis event recent earth'
p4
aS'gmt apr per date limit engineering ide component allow range'
p5
aS'agency government clipper federal encryption security citizen enforcement secure escrow'
p6
aS'find try ask also look something another part answer kind'
p7
aS'start msg happen doctor treat food soon face surrender bring'
p8
aS'write turn oh ride michael pretty disclaimer wonder old article'
p9
aS'thanks card video apple monitor motherboard modem advance ram hus'
p10
aS'file program ftp directory server display available unix user code'
p11
aS'list send please high free university area problem read control'
p12
aS'game play team score player playoff win wings rangers baseball'
p13
aS'christian bible christ god faith christianity religion belief truth sin'
p14
aS'fire let instead tear compound waco black batf building burn'
p15
a.