(lp0
S'orbit internal shuttle signal pin moon nasa space spacecraft connector'
p1
aS'look first two take better right might put let yeah'
p2
aS'playoff score player rangers baseball season game toronto leafs team'
p3
aS'write fast simm buy amount since probably pretty help peter'
p4
aS'country population armenia armenian today rights tax force political million'
p5
aS'work please try appreciate good reply fine may thank give'
p6
aS'christian god faith christianity belief truth religion evidence moral word'
p7
aS'die love child point sin death stand hell face koresh'
p8
aS'israeli israel arab arabs book lebanon lebanese university village part'
p9
aS'windows software ftp pc file server directory window screen card'
p10
aS'bike ride mile day hear car keep bmw motorcycle never'
p11
aS'one think see time even come tell go always mean'
p12
aS'key encryption clipper escrow secure security agency nsa public gun'
p13
aS'make want article thing anyone much seem lot say back'
p14
aS'drive scsi get scsus need ide know like line error'
p15
a.