(lp0
S'last great keep sure baseball maybe michael bob home pitch'
p1
aS'able actually anything around advance sound pretty hope guess phone'
p2
aS'give find another since still much mean yet though first'
p3
aS'like know think get want article take tell point happy'
p4
aS'try look right back best never real far probably always'
p5
aS'run box buy bit list lot old noise equipment connect'
p6
aS'key provide obtain research distribute space structure encrypt message addition'
p7
aS'god christian bible christ faith jesus christianity truth israel church'
p8
aS'appreciate sale driver memory greatly anybody latest signal machine brand'
p9
aS'write might opinion ever way idea else jon long employer'
p10
aS'program file directory ftp application available site display server function'
p11
aS'fact armenia child live history woman turkish show remain mountain'
p12
aS'card windows mac drive video ram mb motherboard pc port'
p13
aS'law public member action country act security civil population armenian'
p14
aS'interested thanks sell hello university printer question david item monitor'
p15
aS'good car seem better put little problem start something thing'
p16
aS'anyone let well hear big enough move month gas expect'
p17
aS'game team player playoff score play fan rangers season pittsburgh'
p18
aS'quite turn almost likely exactly mind figure fire difference end'
p19
aS'please help ask part new change copy day bike book'
p20
aS'whether base level pay surrender science robert perhaps reasonable msg'
p21
aS'guy sorry minute mine night station side time thank hour'
p22
aS'government people clinton criminal crime economic agency encryption congress private'
p23
aS'fax uucp steve ago reply week bank interesting kind respond'
p24
aS'price someone without fast replace company apple bad mention low'
p25
a.