(lp0
S'card motherboard mhz scsi scsus ide quadra simm ram meg'
p1
aS'lebanese wrong lebanon compound anything exactly brain stupid opinion yes'
p2
aS'god christian bible christ faith jesus christianity belief church believe'
p3
aS'anyone condition interested wonder please respond book kind know thank'
p4
aS'file directory ftp toolkit server motif compile xterm routine programming'
p5
aS'team game player play hockey score playoff season baseball wings'
p6
aS'tell hand remember learn realize stand listen live care doctor'
p7
aS'flight orbit spacecraft station dc solar radar experiment shuttle institute'
p8
aS'government criminal citizen crime turks escrow armenia enforcement federal clipper'
p9
aS'article bike write ride msg helmet like gordon bmw dog'
p10
a.