(lp0
S'anyone better game best win nice seem roger lot really'
p1
aS'software windows window ftp server program unix directory version available'
p2
aS'sale mike pittsburgh tor stanley det steve van air cal'
p3
aS'either long anybody quite suggest least unless far may sort'
p4
aS'know ask time question look something well good take call'
p5
aS'interested anyway advance chris michael picture rider keith robert gordon'
p6
aS'memory mode ram screen video scsi color mb ide motherboard'
p7
aS'state israel israeli right keep lebanese course arab someone since'
p8
aS'sell boston york san montreal rangers bike new period angeles'
p9
aS'fan hit team score player play last car braves pitch'
p10
aS'article write try like get want delete think one make'
p11
aS'christian jesus god christ bible faith christianity church sin belief'
p12
aS'agency secure encryption escrow security enforcement clipper nsa public private'
p13
aS'study science evidence effect treatment medicine patient national result cost'
p14
aS'armenians armenian armenia turks kill village turkish troops soldier genocide'
p15
a.