(lp0
S'get article try disclaimer alan give somewhere bmw two opinion'
p1
aS'please software send version machine copy phone include uucp graphic'
p2
aS'god believe faith bible christ belief life truth religion existence'
p3
aS'game team player score play playoff season fan rangers win'
p4
aS'window display screen server application windows font motif color printer'
p5
aS'key soon sure buy friend enough ago insurance around every'
p6
aS'armenia rights government turks federal armenian israeli encryption arab enforcement'
p7
aS'kill moral koresh fire agree nothing hand innocent history people'
p8
aS'motherboard sell video apple bus sale simm mb scsi mhz'
p9
aS'look see back much make hear find let happen work'
p10
aS'write good think know really car lot guess seem oh'
p11
aS'one say take well right still turn anything maybe time'
p12
aS'research space information nasa orbit project department service institute development'
p13
aS'christian word heaven man lord jesus catholic die quote christianity'
p14
aS'like want michael need someone call high low stupid local'
p15
a.