(lp0
S'people say god one believe many make christian life jesus'
p1
aS'use system drive file also key program information include available'
p2
aS'year go government one make think take last get say'
p3
aS'use one need new line make problem read number time'
p4
aS'write article get know like think go one anyone see'
p5
a.