(lp0
S'true doctrine sin might question show reveal biblical mean word'
p1
aS'think know go something say article live like good want'
p2
aS'york april washington det rangers tor hockey pit playoff division'
p3
aS'science israeli arab arabs human shuttle attack mission upon village'
p4
aS'video hus spec ram machine hd speed motherboard monitor advance'
p5
a.