(lp0
S'bike ride really helmet pretty turn rear motorcycle little long'
p1
aS'send message set number request source available release product algorithm'
p2
aS'escrow clipper project agency wiretap crypto secure nasa nsa key'
p3
aS'christian christ christianity faith believe sin truth witness heaven lord'
p4
aS'bad oh yeah blow guy ryan msg bet recall eat'
p5
aS'let know even go anything say make wrong good might'
p6
aS'armenia turks armenian armenians muslim population genocide escape turkish serve'
p7
aS'san pittsburgh chicago rangers toronto montreal angeles boston wings philadelphia'
p8
aS'israeli israel claim fact kill lebanon never talk lebanese day'
p9
aS'graphic software windows color display screen window postscript workstation mode'
p10
aS'change problem read line question run since different group open'
p11
aS'motherboard hus appreciate hd video meg monitor ide scsi memory'
p12
aS'game team baseball fan player coach defensive tie stats cup'
p13
aS'write like article want one try get way time delete'
p14
aS'objective cause suggest behavior real science student jon position amount'
p15
a.