(lp0
S'thing point even well way might never always anyone else'
p1
aS'software printer memory port monitor server pc display screen graphic'
p2
aS'government rights state civil federal citizen cause concern group court'
p3
aS'wonder msg wrong food hell drink turn ago away oh'
p4
aS'armenia armenian armenians turks kill massacre village turkish escape genocide'
p5
aS'sell able reply sound please frank pretty picture james btw'
p6
aS'know good see really last braves come seem much game'
p7
aS'weapon criminal crime gun handgun police firearm us drug research'
p8
aS'line rangers pittsburgh montreal wings calgary play leafs list file'
p9
aS'buy big price car helmet mile steve condition kid dealer'
p10
aS'like article write get want look go one noise work'
p11
aS'chip card key encryption clipper escrow windows algorithm access phone'
p12
aS'better back player pitch fan lot hit still roger put'
p13
aS'science complete value university objective reference nasa shuttle image mission'
p14
aS'god bible faith christ christian christianity israel jesus belief sin'
p15
a.