(lp0
S'appreciate need voltage fine suggestion greatly detector amp tube cost'
p1
aS'government escrow nsa encryption security clipper clinton key secure private'
p2
aS'port email thanks graphic color meg shipping macintosh scsi pc'
p3
aS'public issue provide publish group general organization reference process subject'
p4
aS'armenia turks armenian village israel troops armenians crime murder territory'
p5
aS'card driver quadra gateway disk video bus simm processor dos'
p6
aS'article write think know delete like surrender jon gordon someone'
p7
aS'engineering engine flight inch fuel gear high ford paint vehicle'
p8
aS'window application serial modem font software system user specify mouse'
p9
aS'god christian bible christ christianity jesus faith religion belief church'
p10
aS'game team play player score playoff season rangers win baseball'
p11
aS'enough anything brain friend real mine stupid oh since quite'
p12
aS'hear back little put go bike turn good ride still'
p13
aS'guy yeah sorry msg michael cop catch hey guess jack'
p14
aS'much try car really lot sure thing around though way'
p15
a.