(lp0
S'program may information file note name post create free change'
p1
aS'encryption clipper agency secure security escrow enforcement federal protect nsa'
p2
aS'system windows send computer email disk mode copy call drive'
p3
aS'michael else anybody appreciate sorry reply mine oh remember always'
p4
aS'least player though real anyone maybe lose morality understand whether'
p5
aS'see say know people one go think take way start'
p6
aS'case long seem since best sure end build opinion avoid'
p7
aS'consider deal wonder move monitor short different stupid cop member'
p8
aS'god christian bible christ faith christianity belief religion jesus truth'
p9
aS'quite ever mind become sort already especially stop less sound'
p10
aS'version unix available ftp code user directory server use include'
p11
aS'motherboard memory replace boot notice greatly suggestion install low pin'
p12
aS'either however let someone probably possible rather mention likely decide'
p13
aS'israel state israeli arab land arabs territory country population civilian'
p14
aS'space price orbit sale cost moon interested flight old box'
p15
aS'test several contain info card address open error screen keep'
p16
aS'time car back chip come help turn buy every little'
p17
aS'show science study great pay side small idea scientific large'
p18
aS'two work right point still read run bit must current'
p19
aS'road level air major experience ride gordon society jews surrender'
p20
aS'article write thing want try really much mean problem anything'
p21
aS'gun number tax group continue hear care president without effect'
p22
aS'score play fan rangers playoff baseball chicago pittsburgh toronto game'
p23
aS'mac thanks ram port pc window speed upgrade apple mhz'
p24
aS'kill armenians armenian armenia turks woman soldier massacre tear escape'
p25
a.