(lp0
S'last end back might goal world net rangers little playoff'
p1
aS'mark cost model less several win due small four per'
p2
aS'thanks advance appreciate install fax hus upgrade apple hello modem'
p3
aS'live quite mind oh month interested offer anyway wait die'
p4
aS'another show least leave list side bill article couple person'
p5
aS'access information device algorithm clipper product escrow email address nsa'
p6
aS'space sale san chicago york replace series turn steve pittsburgh'
p7
aS'phone driver enough technology next mouse nice light limit protect'
p8
aS'see find like way people think come even work car'
p9
aS'good either mean change possible actually something bit base large'
p10
aS'team player new run year score support pitch fan stats'
p11
aS'kill clear peace moral jewish explain love faith whole claim'
p12
aS'david machine order computer point local michael big week news'
p13
aS'reason different post idea christianity book human opinion must nature'
p14
aS'fire child compound gas waco fbi pay tear batf inside'
p15
aS'try put man sure start follow power card law course'
p16
aS'armenia turks armenian mountain escape turkish armenians soviet genocide thousand'
p17
aS'problem much long rather tell better word please name life'
p18
aS'original almost instead radio date bus notice single chris performance'
p19
aS'since lot allow anything memory yet difference reference correct stuff'
p20
aS'file program window display version directory windows software server application'
p21
aS'god christian believe christ jesus many time sin accept also'
p22
aS'give call may need without number group read thing let'
p23
aS'right help anyone make keep go someone around chip best'
p24
aS'congress president economic million united business effort meet result population'
p25
a.