(lp0
S'one write use get say article know people make like'
p1
aS'write use one get say article know people make think'
p2
aS'write one use get know say article make go people'
p3
aS'write one use get article say know like make go'
p4
aS'one write use db get article say know people go'
p5
aS'write one use get article say know like make think'
p6
aS'use write one get say article know people make think'
p7
aS'one write use get say article know go people think'
p8
aS'write one use get article say know make think go'
p9
aS'write one use get article say know go people make'
p10
aS'write one use get say article know go like people'
p11
aS'write use one get say article people know go think'
p12
aS'write one use say get article know go people make'
p13
aS'write one use get say know article people like go'
p14
aS'write one use get article say know think people make'
p15
a.