(lp0
S'windows source design space software function select page memory generate'
p1
aS'get like look want go think find way somebody hey'
p2
aS'try see since seem might point new read something least'
p3
aS'two really case possible fact bad food criminal gun yet'
p4
aS'day name group issue consider end mention general example enough'
p5
aS'good problem give much pretty start even post actually mean'
p6
aS'know call take number let best set draw create difference'
p7
aS'god bible faith christ christianity truth life belief religion sin'
p8
aS'research development project nasa company develop flight institute orbit shuttle'
p9
aS'window unix server application via code documentation available ftp user'
p10
aS'ago last show week month man world mine oh road'
p11
aS'key clipper escrow law secure nsa order security scheme enforcement'
p12
aS'tell happen never back talk ever believe away anything sure'
p13
aS'one make say people article car personally alternative ken thing'
p14
aS'armenia israel village turks armenians armenian escape arab troops land'
p15
aS'write drive run well free quality larger smaller convert delete'
p16
aS'team player game playoff win fan baseball rangers toronto season'
p17
aS'rights member act individual accord weapon involve illegal simply john'
p18
aS'clinton american country pay police tax congress employer arm white'
p19
aS'use program work need include information help directory change also'
p20
aS'thanks hus card motherboard video monitor upgrade meg appreciate hd'
p21
aS'david far peace person science light upon earth reality organization'
p22
aS'matter book accept teach speak whole jesus clear keep mind'
p23
aS'buy sell ride chris gear scsi box ford cheaper performance'
p24
aS'play move power little ball bob driver chance pull speed'
p25
a.