(lp0
S'definition god reason jesus bible existence christian faith claim sin'
p1
aS'write pretty like article hit pitch hitter anyone guess little'
p2
aS'software windows user unix interface display documentation mode meg server'
p3
aS'flight adams ny rangers chicago ottawa pittsburgh philadelphia louis boston'
p4
aS'mountain serve armenia turks armenians body greece armenian terrorist army'
p5
a.