(lp0
S'use file system program drive thanks information work run also'
p1
aS'god people one believe say think christian law make question'
p2
aS'write article get like car one good make year power'
p3
aS'go say know come people one take see think tell'
p4
aS'one think make like know get time write good see'
p5
a.