(lp0
S'fax display phone mail server copy please motif graphic library'
p1
aS'team game play hockey fan nhl season baseball cup coach'
p2
aS'armenia armenians armenian kill muslim troops village murder country weapon'
p3
aS'clinton state escrow secure clipper concern private individual security drug'
p4
aS'really car insurance much enough hear guess pay better wonder'
p5
aS'bible god christian faith belief christianity christ sin truth believe'
p6
aS'know article write maybe think see want like go tell'
p7
aS'space project orbit nasa research university information mission lunar solar'
p8
aS'rangers ride road bike helmet det mile tor van san'
p9
aS'card scsi drive ide motherboard windows meg ram mb install'
p10
a.