(lp0
S'write one use get article say know people think make'
p1
aS'write one use get article say know people make like'
p2
aS'write one use get article say know people make like'
p3
aS'write one use get db article say know people make'
p4
aS'write one use get article say know people like make'
p5
aS'write one use get article say know people make think'
p6
aS'write one use get article say know people like think'
p7
aS'write one use get article say know people like make'
p8
aS'write one use get article say know people like make'
p9
aS'write one use get article say know people like make'
p10
aS'write one use get article say know people like make'
p11
aS'write one use get article say know people like make'
p12
aS'write one use get article say know people make think'
p13
aS'write one use get article say know people like make'
p14
aS'write one use get article say know people like go'
p15
a.