(lp0
S'use system file drive key program thanks also work need'
p1
aS'year game get good go team new play last car'
p2
aS'write article get one like know think go see say'
p3
aS'people government state say make gun work go year think'
p4
aS'say god one people believe make christian man think life'
p5
a.