(lp0
S'lot better enough gun probably little actually around seem might'
p1
aS'israel israeli arab lebanon lebanese arabs surrender palestinian gordon msg'
p2
aS'armenia turks proceed soldier genocide troops town massacre soviet population'
p3
aS'key clipper encryption escrow algorithm chip encrypt secure crypto wiretap'
p4
aS'card windows motherboard mb ram memory thanks scsi upgrade ide'
p5
aS'game play team playoff win rangers wings leafs montreal cup'
p6
aS'look also find run box ground button may much post'
p7
aS'sun code character compile routine postscript info email source input'
p8
aS'speaker level electronics amp amount fairly larger picture rf tube'
p9
aS'bible faith god church belief christianity religion truth doctrine scripture'
p10
aS'article write know get want anyone think see try really'
p11
aS'least since never else idea consider wrong always deal objective'
p12
aS'bike mike hit ride baseball guy bmw mile ball rider'
p13
aS'association budget country tax station money director fund federal clinton'
p14
aS'state tell give libertarian war day happen freedom ask police'
p15
a.