(lp0
S'use one need problem work get buy power like box'
p1
aS'people say god one come go know kill man take'
p2
aS'say people believe state god make christian think government law'
p3
aS'space university new year research use center report include national'
p4
aS'write article get like know one think go really car'
p5
aS'game year team play go win player first last good'
p6
aS'write one article know get anyone see make think like'
p7
aS'use file system program drive key window available run card'
p8
aS'write get article know one like think anyone go please'
p9
aS'write article one think make like get know people see'
p10
a.