(lp0
S'christ bible jesus church sin scripture life faith truth doctrine'
p1
aS'clipper government economic federal citizen criminal escrow political armenia nsa'
p2
aS'windows software display graphic printer application screen server font ftp'
p3
aS'write know well make something article go time like thing'
p4
aS'chicago toronto pittsburgh rangers play playoff fan game jose philadelphia'
p5
a.