(lp0
S'let better actually bad ever side already whether difference money'
p1
aS'claim expect cost sense situation assume certainly common record early'
p2
aS'force area week fight serve thousand speak present local cut'
p3
aS'think see find god however attack armenian weight baby gay'
p4
aS'idea john teach hell belief steve although james heaven kid'
p5
aS'know system run another include person background table task states'
p6
aS'car driver appreciate bike motherboard manual hello upgrade ram sale'
p7
aS'even thing well many seem game rather worst homosexual nice'
p8
aS'though course result begin deal chance american except oh longer'
p9
aS'windows computer graphic screen monitor unix fax directory server microsoft'
p10
aS'one article go decent bug btw rock plane employer bottom'
p11
aS'number since put name law far create certain free upon'
p12
aS'around mark hit guy major away guess copy wonder wait'
p13
aS'country action always israeli war fire real faith perhaps important'
p14
aS'information drive space release development product several range interface operation'
p15
aS'problem tell start something government power home move road armenia'
p16
aS'want come post world wrong nothing three stop press learn'
p17
aS'live today either possible child best carry member evidence commit'
p18
aS'base quite attempt earth jon share thought concept seriously unfortunately'
p19
aS'first good play much man still university win chicago pittsburgh'
p20
aS'call never someone must remember draw disclaimer whatever personal brian'
p21
aS'way point state end along describe model application ok stick'
p22
aS'every opinion happen talk leave decide involve within jim plan'
p23
aS'may believe right might last day statement truth israel realize'
p24
aS'note design via access speed small clipper newsgroup internet otherwise'
p25
aS'hold understand order rights else clear us die often lead'
p26
aS'use people file protection guarantee slave decent expert plane rock'
p27
aS'read least consider become accept define feel mind particular amount'
p28
aS'line software build size return source input author date open'
p29
aS'christian life bible true agree kill christ jesus love christianity'
p30
aS'ask lot second available research national anything gun rate likely'
p31
aS'case fact keep hear reason cause simply less suggest ago'
p32
aS'send message mail contain general technology faq generate security bit'
p33
aS'look try question mean part yes somewhere thread besides gain'
p34
aS'thanks mike fan toronto baseball playoff memory rangers modem stanley'
p35
aS'time anyone please help little great enough hand light suppose'
p36
aS'make take datum add value image ftp ability encryption format'
p37
aS'year code center report department obtain contact develop office complete'
p38
aS'change allow next require answer control address reference view lose'
p39
aS'really issue exist matter news science receive company discussion robert'
p40
aS'need program set window version error display disk old sure'
p41
aS'price printer hp shipping honda performance uucp setup ride bus'
p42
aS'get work new two decent okay reaction btw rock plane'
p43
aS'able turn yet big card friend word month effect instead'
p44
aS'write like also decent joke funny ryan rock plane defensive'
p45
aS'long later cover story death low street house special total'
p46
aS'key group provide public show different large purpose algorithm federal'
p47
aS'say give back without follow support pass fun decent advice'
p48
aS'team place book david player box city dave smith pick'
p49
aS'hus buy video hd port apple advance pc install mac'
p50
a.