(lp0
S'develop office legal experience everything protect prevent market activity learn'
p1
aS'computer algorithm encryption security bit display via hardware secure systems'
p2
aS'try believe ask another better life reason clear sexual thinking'
p3
aS'see problem gun criminal crime liberty control police bill house'
p4
aS'information software group change note machine technology release design several'
p5
aS'president american money clinton congress tax pay bush agency budget'
p6
aS'system include send list server support message gif address distribute'
p7
aS'drive chip datum scsi serial ide bus motherboard mb boot'
p8
aS'time work first run tell bottom installation strange nearly perfectly'
p9
aS'consider far course else always country yet pretty whole job'
p10
aS'hey chris bob gordon pitch yeah jeff catch ball ryan'
p11
aS'card windows well memory much color driver two fast apple'
p12
aS'kill away though armenians woman high city guy pass light'
p13
aS'look never state least leave almost face stuff sick msg'
p14
aS'day jesus faith rather sin love die enough statement choose'
p15
aS'space three next launch nasa large reference old flight fly'
p16
aS'kind maybe stop guess truth wonder religion expect explain exactly'
p17
aS'get people write mov cell enjoy marc experiment logical decent'
p18
aS'bad mike true yes fan oh unless offer soon especially'
p19
aS'connect replace similar sometimes main battery cable major equipment short'
p20
aS'play player season score toronto playoff rangers pittsburgh cup stanley'
p21
aS'really hear might happen word either order become turn place'
p22
aS'great win buy side big period third death cover matter'
p23
aS'sort steve otherwise quote depend within certain easy respond screen'
p24
aS'let wrong real quite john view today create hope long'
p25
aS'ride end friend front perhaps rear clipper sale mind stupid'
p26
aS'phone speed box test allow manual michael print clock andrew'
p27
aS'find want help university start fax available research contact material'
p28
aS'even many point anyone read bother accord avoid post heavy'
p29
aS'know say come article new afraid apartment floor marc reliable'
p30
aS'seem thanks since mean probably power sound original choice tube'
p31
aS'still little second add report effect center check higher reply'
p32
aS'law rights israeli world citizen action act peace weapon war'
p33
aS'cost ever interested already recently care suppose monitor speak handle'
p34
aS'like also need answer line amount quickly byte huge ready'
p35
aS'advance hus anybody baseball hit video hello greatly radio fine'
p36
aS'someone cause idea build science process whether result describe attempt'
p37
aS'year good game back man window disk board floppy highest'
p38
aS'way question without anything show case human moral definition david'
p39
aS'christian thing bible claim christianity christ right church jewish teaching'
p40
aS'use one may application specify value widget resource root colormap'
p41
aS'israel fact live arab armenia village turks population arabs muslim'
p42
aS'file program user language ftp code directory version routine postscript'
p43
aS'possible exist actually child involve study suggest situation discussion issue'
p44
aS'lot keep opinion appreciate book ago remember anyway area story'
p45
aS'government talk condition likely feel later plan comment interesting doubt'
p46
aS'bike hand fire home minute goal watch behind pull stick'
p47
aS'think go make god take thinking shut worst marc desire'
p48
aS'give car call please around put team nothing follow etc'
p49
aS'part key sure best however set last different escrow detail'
p50
a.