(lp0
S'government clinton wrong yet pay hope tax word objective science'
p1
aS'good like back still someone much ask start space tell'
p2
aS'armenians armenia turks armenian village massacre soldier troops turkish away'
p3
aS'real group possible around lot large never pretty able detector'
p4
aS'play game rangers toronto score chicago playoff win pittsburgh leafs'
p5
aS'card motherboard scsi ide mb ram speed meg apple monitor'
p6
aS'key algorithm information encryption chip file encrypt program clipper need'
p7
aS'question might drug reason day medicine keep study disease understand'
p8
aS'rights issue example law case member federal action true citizen'
p9
aS'christian faith religion church life jesus belief truth human evidence'
p10
aS'baseball team player fan mike pitch braves trade division defensive'
p11
aS'thanks appreciate please sale email buy hello manual model offer'
p12
aS'say think thing go god people believe heaven sin pray'
p13
aS'window display version windows unix server graphic font ftp available'
p14
aS'article car time really take write look bad mile way'
p15
a.