(lp0
S'time question much well post part run even answer day'
p1
aS'information number include send research national government president package office'
p2
aS'know take thing back two every case opinion must group'
p3
aS'win playoff score play armenia turks armenians rangers armenian toronto'
p4
aS'enough today concern yes us discussion steve james week jim'
p5
aS'get write one use see connector careful come file thread'
p6
aS'thanks card windows video advance drive motherboard install meg printer'
p7
aS'say way point give right seem mean try since someone'
p8
aS'disk bike speed memory monitor hus floppy port appreciate apple'
p9
aS'player guy lose mark mike home season feel pick record'
p10
aS'fax sale sell interested controller shipping graphic pc anybody ide'
p11
aS'article like make good people also may problem food sick'
p12
aS'let great probably maybe wrong bad ago money possible john'
p13
aS'code display ftp application server provide source faq library access'
p14
aS'key clipper escrow algorithm encryption chip secure program datum technology'
p15
aS'price manual driver modem upgrade hello ram model screen mb'
p16
aS'gun crime murder arm criminal attack war israeli police citizen'
p17
aS'look need go space current open character version error site'
p18
aS'state year last might live kill jewish arab become country'
p19
aS'true man actually different quite truth therefore often accept turn'
p20
aS'though far ask high result allow test general hold assume'
p21
aS'god christian bible faith christ jesus christianity church believe belief'
p22
aS'want think work tell really another call system sure least'
p23
aS'claim never person reason israel matter peace fire yet act'
p24
aS'lot nothing idea rather life big book happen experience hand'
p25
a.