(lp0
S'trip soldier israel israeli armenia village bike lebanese arab jew'
p1
aS'thing really believe tell something think know someone seem god'
p2
aS'windows software card memory version thanks window mode display disk'
p3
aS'government freedom federal tax batf compound carry society police fbi'
p4
aS'pittsburgh rangers playoff win toronto game philadelphia mike louis wings'
p5
a.