(lp0
S'game fan team playoff play player score rangers toronto baseball'
p1
aS'arab israel israeli population act state village jew peace territory'
p2
aS'clipper secure enforcement escrow encryption security agency wiretap key police'
p3
aS'know science car objective friend take hear enough show reason'
p4
aS'function character code contain motif widget error compile client library'
p5
aS'god word write truth christian bible ask wrong definition people'
p6
aS'card windows thanks pc ram motherboard meg mb ide printer'
p7
aS'sure mine think disclaimer opinion least real msg experience never'
p8
aS'inside end high tank gas fuel cost area three around'
p9
aS'see really tell well say even something happen someone like'
p10
a.