(lp0
S'thanks card window software windows server graphic modem appreciate memory'
p1
aS'government religion turkish god evidence claim many justice rights armenia'
p2
aS'game hit fan write last pitch baseball go article team'
p3
aS'orbit mission experiment observe measure shuttle satellite flight launch us'
p4
aS'det tor pit que van leafs shot israel min nj'
p5
a.