(lp0
S'people go work problem teaching solve rich reliable aside rf'
p1
aS'thing good want two key every aside teaching biggest cop'
p2
aS'state since opinion probably rights turks population perhaps arm jewish'
p3
aS'must believe case life world still reject leave reasoning lie'
p4
aS'available version ftp source unix via site library read sun'
p5
aS'seem card someone hear sell interested sound apple hello fax'
p6
aS'man let put place away cost kind carry draw learn'
p7
aS'make think also well myers teaching aside worship rf hurt'
p8
aS'even many point question day exist cause mind armenian situation'
p9
aS'advance bad group anybody ever port hus space couple happen'
p10
aS'israeli become arab land matter create cover civilian serve simply'
p11
aS'thanks set course example reason bible correct best monitor greatly'
p12
aS'use like look rf reliable turbo teaching swap worship hurt'
p13
aS'price appreciate sale original mike tom item dave previous picture'
p14
aS'screen contain server manual font print color apr april select'
p15
aS'find anyone might mean change driver somewhere effect confuse following'
p16
aS'least claim follow view truth quite love three fire light'
p17
aS'need new last without tell sure great break together record'
p18
aS'person nothing hope always note hand sense hold accept close'
p19
aS'may include send general science mail issue result scientific study'
p20
aS'drive game speed motherboard scsi hd bus internal video boot'
p21
aS'order allow large rate us possible common describe require offer'
p22
aS'car little second steve box unless figure sorry although left'
p23
aS'government country gun federal clinton agency crime citizen escrow criminal'
p24
aS'wonder week interesting design position reply rest worth btw ten'
p25
aS'president way white talk today care take house press meet'
p26
aS'area local weapon within necessary charge bill family search target'
p27
aS'back another though actually real word child pay almost involve'
p28
aS'either wrong answer several already friend error means admit attempt'
p29
aS'base check earth flight nasa orbit rocket build head shuttle'
p30
aS'try help really right start big different remember simm besides'
p31
aS'one get write teaching reliable hurt direction cop bottom warrant'
p32
aS'christian israel armenia church live religion never armenians post soul'
p33
aS'please list program line computer current phone book email john'
p34
aS'chip encryption clipper technology secure security algorithm device public access'
p35
aS'around lot turn maybe windows stuff stop fine oh lead'
p36
aS'idea hard install board add easy pc plus reference later'
p37
aS'bike hit road single death wait face inside signal shoot'
p38
aS'keep anything support rather less company side level agree recently'
p39
aS'software application display function user image interface directory address format'
p40
aS'team play player win score season playoff baseball roger toronto'
p41
aS'say know god time come eternal lord heart prayer satan'
p42
aS'buy else enough end old able pretty far everyone nice'
p43
aS'system law much jesus faith christ call act sin apply'
p44
aS'name information better david test research ask next jim engineering'
p45
aS'article first michael gordon chris surrender damn employer bob cool'
p46
aS'run see file give window part something command swap floor'
p47
aS'kill watch guy kid stand woman throw front fbi waco'
p48
aS'human true whether moral nature define explain definition morality food'
p49
aS'number university however high national department publish likely activity mention'
p50
a.