(lp0
S'key encrypt escrow cryptography secure pgp rsa newsgroup encryption security'
p1
aS'display file window ftp program available software server application format'
p2
aS'car get pretty like mine maybe sure around good write'
p3
aS'armenia turks turkish genocide armenian turkey mountain soviet land force'
p4
aS'play game team win score fan playoff player montreal baseball'
p5
aS'motherboard scsi ram ide mb meg upgrade printer hd memory'
p6
aS'god christ bible jesus church faith heaven christian eternal believe'
p7
aS'israeli israel arab arabs peace human morality claim society lebanon'
p8
aS'flight spacecraft vehicle orbit pay michael saturn david space solar'
p9
aS'seem really one something think give know way let take'
p10
a.