(lp0
S'encryption secure clipper escrow key agency nsa technology security crypto'
p1
aS'god think bible jesus mean see say pray faith satan'
p2
aS'car slow speed rate cost faster scsi ide difference spec'
p3
aS'player play game score baseball hit season fan roger pitch'
p4
aS'toronto rangers win montreal chicago team division playoff detroit boston'
p5
aS'arab treatment political treat jews history friend jewish lebanese muslim'
p6
aS'christian truth christ christianity evidence scripture love whether true morality'
p7
aS'make msg enough try never hear around put little better'
p8
aS'card thanks motherboard driver appreciate advance video ram monitor hus'
p9
aS'kill crime gun country murder armenians weapon child soldier israel'
p10
aS'article like get hr write know good anyone look go'
p11
aS'software window server windows ftp version directory display unix application'
p12
aS'believe someone opinion tell man statement sexual fact question perhaps'
p13
aS'line name section date build read entry return submit output'
p14
aS'guess light jim detector radar fun helmet couple dod stupid'
p15
a.